target datalayout = "e-m:e-p270:32:32-p271:32:32-p272:64:64-i64:64-i128:128-f80:128-n8:16:32:64-S128"
target triple = "x86_64-unknown-linux-gnu"

%"class.std::__shared_count" = type { ptr }
%"class.grpc_core::BasicMemoryQuota" = type { %"class.std::enable_shared_from_this", %"struct.std::atomic", %"struct.std::atomic.0", [3 x %"class.grpc_core::ReclaimerQueue"], %"class.grpc_core::BasicMemoryQuota::AllocatorBucket", %"class.grpc_core::BasicMemoryQuota::AllocatorBucket", %"class.std::unique_ptr", %"struct.std::atomic.0", %"class.grpc_core::memory_quota_detail::PressureTracker", %"class.std::__cxx11::basic_string" }
%"class.std::enable_shared_from_this" = type { %"class.std::weak_ptr" }
%"class.std::weak_ptr" = type { %"class.std::__weak_ptr" }
%"class.std::__weak_ptr" = type { ptr, %"class.std::__weak_count" }
%"class.std::__weak_count" = type { ptr }
%"struct.std::atomic" = type { %"struct.std::__atomic_base" }
%"struct.std::__atomic_base" = type { i64 }
%"class.grpc_core::ReclaimerQueue" = type { %"class.std::shared_ptr.2" }
%"class.std::shared_ptr.2" = type { %"class.std::__shared_ptr.3" }
%"class.std::__shared_ptr.3" = type { ptr, %"class.std::__shared_count" }
%"class.grpc_core::BasicMemoryQuota::AllocatorBucket" = type { %"struct.std::array" }
%"struct.std::array" = type { [16 x %"struct.grpc_core::BasicMemoryQuota::AllocatorBucket::Shard"] }
%"struct.grpc_core::BasicMemoryQuota::AllocatorBucket::Shard" = type { %"class.absl::lts_20230802::flat_hash_set", %"class.absl::lts_20230802::Mutex" }
%"class.absl::lts_20230802::flat_hash_set" = type { %"class.absl::lts_20230802::container_internal::raw_hash_set" }
%"class.absl::lts_20230802::container_internal::raw_hash_set" = type { %"class.absl::lts_20230802::container_internal::CompressedTuple" }
%"class.absl::lts_20230802::container_internal::CompressedTuple" = type { %"struct.absl::lts_20230802::container_internal::internal_compressed_tuple::CompressedTupleImpl" }
%"struct.absl::lts_20230802::container_internal::internal_compressed_tuple::CompressedTupleImpl" = type { %"struct.absl::lts_20230802::container_internal::internal_compressed_tuple::Storage" }
%"struct.absl::lts_20230802::container_internal::internal_compressed_tuple::Storage" = type { %"class.absl::lts_20230802::container_internal::CommonFields" }
%"class.absl::lts_20230802::container_internal::CommonFields" = type { ptr, ptr, i64, %"class.absl::lts_20230802::container_internal::CompressedTuple.5" }
%"class.absl::lts_20230802::container_internal::CompressedTuple.5" = type { %"struct.absl::lts_20230802::container_internal::internal_compressed_tuple::CompressedTupleImpl.6" }
%"struct.absl::lts_20230802::container_internal::internal_compressed_tuple::CompressedTupleImpl.6" = type { %"struct.absl::lts_20230802::container_internal::internal_compressed_tuple::Storage.7" }
%"struct.absl::lts_20230802::container_internal::internal_compressed_tuple::Storage.7" = type { i64 }
%"class.absl::lts_20230802::Mutex" = type { %"struct.std::atomic" }
%"class.std::unique_ptr" = type { %"struct.std::__uniq_ptr_data" }
%"struct.std::__uniq_ptr_data" = type { %"class.std::__uniq_ptr_impl" }
%"class.std::__uniq_ptr_impl" = type { %"class.std::tuple" }
%"class.std::tuple" = type { %"struct.std::_Tuple_impl" }
%"struct.std::_Tuple_impl" = type { %"struct.std::_Head_base.13" }
%"struct.std::_Head_base.13" = type { ptr }
%"struct.std::atomic.0" = type { %"struct.std::__atomic_base.1" }
%"struct.std::__atomic_base.1" = type { i64 }
%"class.grpc_core::memory_quota_detail::PressureTracker" = type { %"struct.std::atomic.14", %"struct.std::atomic.14", %"class.grpc_core::PeriodicUpdate", %"class.grpc_core::memory_quota_detail::PressureController" }
%"struct.std::atomic.14" = type { double }
%"class.grpc_core::PeriodicUpdate" = type { %"struct.std::atomic", %"class.grpc_core::Duration", %"class.grpc_core::Timestamp", i64 }
%"class.grpc_core::Duration" = type { i64 }
%"class.grpc_core::Timestamp" = type { i64 }
%"class.grpc_core::memory_quota_detail::PressureController" = type { i8, i8, i8, i8, double, double, double }
%"class.std::__cxx11::basic_string" = type { %"struct.std::__cxx11::basic_string<char>::_Alloc_hider", i64, %union.anon }
%"struct.std::__cxx11::basic_string<char>::_Alloc_hider" = type { ptr }
%union.anon = type { i64, [8 x i8] }

; Function Attrs: mustprogress nounwind uwtable
define void @_ZN9grpc_core16BasicMemoryQuota6ReturnEm(ptr noundef nonnull align 8 dereferenceable(1488) %this, i64 noundef %amount) #4 align 2 {
entry:
  %this.addr.i = alloca ptr, align 8
  %__i.addr.i = alloca i64, align 8
  %__m.addr.i = alloca i32, align 4
  %.atomictmp.i = alloca i64, align 8
  %atomic-temp.i = alloca i64, align 8
  %this.addr = alloca ptr, align 8
  %amount.addr = alloca i64, align 8
  store ptr %this, ptr %this.addr, align 8
  store i64 %amount, ptr %amount.addr, align 8
  %this1 = load ptr, ptr %this.addr, align 8
  %free_bytes_ = getelementptr inbounds %"class.grpc_core::BasicMemoryQuota", ptr %this1, i32 0, i32 1
  %0 = load i64, ptr %amount.addr, align 8
  store ptr %free_bytes_, ptr %this.addr.i, align 8
  store i64 %0, ptr %__i.addr.i, align 8
  store i32 0, ptr %__m.addr.i, align 4
  %this1.i = load ptr, ptr %this.addr.i, align 8
  %1 = load i32, ptr %__m.addr.i, align 4
  %2 = load i64, ptr %__i.addr.i, align 8
  store i64 %2, ptr %.atomictmp.i, align 8
  switch i32 %1, label %monotonic.i [
    i32 1, label %acquire.i
    i32 2, label %acquire.i
    i32 3, label %release.i
    i32 4, label %acqrel.i
    i32 5, label %seqcst.i
  ]

monotonic.i:                                      ; preds = %entry
  %3 = load i64, ptr %.atomictmp.i, align 8
  %4 = atomicrmw add ptr %this1.i, i64 %3 monotonic, align 8
  store i64 %4, ptr %atomic-temp.i, align 8
  br label %_ZNSt13__atomic_baseIlE9fetch_addElSt12memory_order.exit

acquire.i:                                        ; preds = %entry, %entry
  %5 = load i64, ptr %.atomictmp.i, align 8
  %6 = atomicrmw add ptr %this1.i, i64 %5 acquire, align 8
  store i64 %6, ptr %atomic-temp.i, align 8
  br label %_ZNSt13__atomic_baseIlE9fetch_addElSt12memory_order.exit

release.i:                                        ; preds = %entry
  %7 = load i64, ptr %.atomictmp.i, align 8
  %8 = atomicrmw add ptr %this1.i, i64 %7 release, align 8
  store i64 %8, ptr %atomic-temp.i, align 8
  br label %_ZNSt13__atomic_baseIlE9fetch_addElSt12memory_order.exit

acqrel.i:                                         ; preds = %entry
  %9 = load i64, ptr %.atomictmp.i, align 8
  %10 = atomicrmw add ptr %this1.i, i64 %9 acq_rel, align 8
  store i64 %10, ptr %atomic-temp.i, align 8
  br label %_ZNSt13__atomic_baseIlE9fetch_addElSt12memory_order.exit

seqcst.i:                                         ; preds = %entry
  %11 = load i64, ptr %.atomictmp.i, align 8
  %12 = atomicrmw add ptr %this1.i, i64 %11 seq_cst, align 8
  store i64 %12, ptr %atomic-temp.i, align 8
  br label %_ZNSt13__atomic_baseIlE9fetch_addElSt12memory_order.exit

_ZNSt13__atomic_baseIlE9fetch_addElSt12memory_order.exit: ; preds = %seqcst.i, %acqrel.i, %release.i, %acquire.i, %monotonic.i
  ret void
}

; Function Attrs: mustprogress uwtable
define void @_ZN9grpc_core16BasicMemoryQuota7SetSizeEm(ptr noundef nonnull align 8 dereferenceable(1488) %this, i64 noundef %new_size) #5 align 2 {
entry:
  %this.addr.i = alloca ptr, align 8
  %__i.addr.i = alloca i64, align 8
  %__m.addr.i = alloca i32, align 4
  %.atomictmp.i = alloca i64, align 8
  %atomic-temp.i = alloca i64, align 8
  %this.addr = alloca ptr, align 8
  %new_size.addr = alloca i64, align 8
  %old_size = alloca i64, align 8
  store ptr %this, ptr %this.addr, align 8
  store i64 %new_size, ptr %new_size.addr, align 8
  %this1 = load ptr, ptr %this.addr, align 8
  %quota_size_ = getelementptr inbounds %"class.grpc_core::BasicMemoryQuota", ptr %this1, i32 0, i32 2
  %0 = load i64, ptr %new_size.addr, align 8
  store ptr %quota_size_, ptr %this.addr.i, align 8
  store i64 %0, ptr %__i.addr.i, align 8
  store i32 0, ptr %__m.addr.i, align 4
  %this1.i = load ptr, ptr %this.addr.i, align 8
  %1 = load i32, ptr %__m.addr.i, align 4
  %2 = load i64, ptr %__i.addr.i, align 8
  store i64 %2, ptr %.atomictmp.i, align 8
  switch i32 %1, label %monotonic.i [
    i32 1, label %acquire.i
    i32 2, label %acquire.i
    i32 3, label %release.i
    i32 4, label %acqrel.i
    i32 5, label %seqcst.i
  ]

monotonic.i:                                      ; preds = %entry
  %3 = load i64, ptr %.atomictmp.i, align 8
  %4 = atomicrmw xchg ptr %this1.i, i64 %3 monotonic, align 8
  store i64 %4, ptr %atomic-temp.i, align 8
  br label %_ZNSt13__atomic_baseImE8exchangeEmSt12memory_order.exit

acquire.i:                                        ; preds = %entry, %entry
  %5 = load i64, ptr %.atomictmp.i, align 8
  %6 = atomicrmw xchg ptr %this1.i, i64 %5 acquire, align 8
  store i64 %6, ptr %atomic-temp.i, align 8
  br label %_ZNSt13__atomic_baseImE8exchangeEmSt12memory_order.exit

release.i:                                        ; preds = %entry
  %7 = load i64, ptr %.atomictmp.i, align 8
  %8 = atomicrmw xchg ptr %this1.i, i64 %7 release, align 8
  store i64 %8, ptr %atomic-temp.i, align 8
  br label %_ZNSt13__atomic_baseImE8exchangeEmSt12memory_order.exit

acqrel.i:                                         ; preds = %entry
  %9 = load i64, ptr %.atomictmp.i, align 8
  %10 = atomicrmw xchg ptr %this1.i, i64 %9 acq_rel, align 8
  store i64 %10, ptr %atomic-temp.i, align 8
  br label %_ZNSt13__atomic_baseImE8exchangeEmSt12memory_order.exit

seqcst.i:                                         ; preds = %entry
  %11 = load i64, ptr %.atomictmp.i, align 8
  %12 = atomicrmw xchg ptr %this1.i, i64 %11 seq_cst, align 8
  store i64 %12, ptr %atomic-temp.i, align 8
  br label %_ZNSt13__atomic_baseImE8exchangeEmSt12memory_order.exit

_ZNSt13__atomic_baseImE8exchangeEmSt12memory_order.exit: ; preds = %seqcst.i, %acqrel.i, %release.i, %acquire.i, %monotonic.i
  %13 = load i64, ptr %atomic-temp.i, align 8
  store i64 %13, ptr %old_size, align 8
  %14 = load i64, ptr %old_size, align 8
  %15 = load i64, ptr %new_size.addr, align 8
  %cmp = icmp ult i64 %14, %15
  br i1 %cmp, label %if.then, label %if.else

if.then:                                          ; preds = %_ZNSt13__atomic_baseImE8exchangeEmSt12memory_order.exit
  %16 = load i64, ptr %new_size.addr, align 8
  %17 = load i64, ptr %old_size, align 8
  %sub = sub i64 %16, %17
  call void @_ZN9grpc_core16BasicMemoryQuota6ReturnEm(ptr noundef nonnull align 8 dereferenceable(1488) %this1, i64 noundef %sub)
  br label %if.end

if.else:                                          ; preds = %_ZNSt13__atomic_baseImE8exchangeEmSt12memory_order.exit
  %18 = load i64, ptr %old_size, align 8
  %19 = load i64, ptr %new_size.addr, align 8
  %sub2 = sub i64 %18, %19
  call void @_ZN9grpc_core16BasicMemoryQuota4TakeEPNS_23GrpcMemoryAllocatorImplEm(ptr noundef nonnull align 8 dereferenceable(1488) %this1, ptr noundef null, i64 noundef %sub2)
  br label %if.end

if.end:                                           ; preds = %if.else, %if.then
  ret void
}