; Function Attrs: mustprogress uwtable
define void @_ZN9grpc_core16BasicMemoryQuota7SetSizeEm(ptr noundef nonnull align 8 dereferenceable(1488) %this, i64 noundef %new_size) local_unnamed_addr #4 align 2 {
entry:
  %quota_size_ = getelementptr inbounds i8, ptr %this, i64 24
  %0 = atomicrmw xchg ptr %quota_size_, i64 %new_size monotonic, align 8
  %cmp = icmp ult i64 %0, %new_size
  br i1 %cmp, label %if.then, label %if.else

if.then:                                          ; preds = %entry
  %sub = sub i64 %new_size, %0
  %free_bytes_.i = getelementptr inbounds i8, ptr %this, i64 16
  %1 = atomicrmw add ptr %free_bytes_.i, i64 %sub monotonic, align 8
  br label %if.end

if.else:                                          ; preds = %entry
  %sub2 = sub i64 %0, %new_size
  tail call void @_ZN9grpc_core16BasicMemoryQuota4TakeEPNS_23GrpcMemoryAllocatorImplEm(ptr noundef nonnull align 8 dereferenceable(1488) %this, ptr noundef null, i64 noundef %sub2)
  br label %if.end

if.end:                                           ; preds = %if.else, %if.then
  ret void
}